target datalayout = "e-m:e-p270:32:32-p271:32:32-p272:64:64-i64:64-i128:128-f80:128-n8:16:32:64-S128"
target triple = "x86_64-pc-linux-gnu"

%"class.llvm::StringRef" = type { ptr, i64 }
%"class.llvm::function_ref" = type { ptr, i64 }
%"class.llvm::function_ref.83" = type { ptr, i64 }
%class.anon.86 = type { ptr }
%class.anon.87 = type { ptr, ptr }

; Function Attrs: mustprogress nounwind uwtable
define internal void @"_ZN4llvm12function_refIFvvEEC2IRZNS_2cl30TokenizeWindowsCommandLineFullENS_9StringRefERNS_11StringSaverERNS_15SmallVectorImplIPKcEEbE3$_1EEOT_PNSt9enable_ifIXntsr3std7is_sameINS_12remove_cvrefISF_E4typeES2_EE5valueEvE4typeEPNSH_IXooL_ZNSt17integral_constantIbLb1EE5valueEEsr3std14is_convertibleIDTclclsr3stdE7declvalISF_EEEEvEE5valueEvE4typeE"(ptr noundef nonnull align 8 dereferenceable(16) %0, ptr noundef nonnull align 8 dereferenceable(16) %1, ptr noundef %2, ptr noundef %3) unnamed_addr #0 align 2 {
  %5 = alloca ptr, align 8
  %6 = alloca ptr, align 8
  %7 = alloca ptr, align 8
  %8 = alloca ptr, align 8
  store ptr %0, ptr %5, align 8
  store ptr %1, ptr %6, align 8
  store ptr %2, ptr %7, align 8
  store ptr %3, ptr %8, align 8
  %9 = load ptr, ptr %5, align 8
  %10 = getelementptr inbounds nuw %"class.llvm::function_ref.83", ptr %9, i32 0, i32 0
  store ptr @"_ZN4llvm12function_refIFvvEE11callback_fnIZNS_2cl30TokenizeWindowsCommandLineFullENS_9StringRefERNS_11StringSaverERNS_15SmallVectorImplIPKcEEbE3$_1EEvl", ptr %10, align 8
  %11 = getelementptr inbounds nuw %"class.llvm::function_ref.83", ptr %9, i32 0, i32 1
  %12 = load ptr, ptr %6, align 8
  %13 = ptrtoint ptr %12 to i64
  store i64 %13, ptr %11, align 8
  ret void
}

; Function Attrs: mustprogress nounwind uwtable
define internal void @"_ZN4llvm12function_refIFvNS_9StringRefEEEC2IRZNS_2cl30TokenizeWindowsCommandLineFullES1_RNS_11StringSaverERNS_15SmallVectorImplIPKcEEbE3$_0EEOT_PNSt9enable_ifIXntsr3std7is_sameINS_12remove_cvrefISF_E4typeES3_EE5valueEvE4typeEPNSH_IXooL_ZNSt17integral_constantIbLb1EE5valueEEsr3std14is_convertibleIDTclclsr3stdE7declvalISF_EEclL_ZSt7declvalIS1_EDTcl9__declvalISF_ELi0EEEvEEEEvEE5valueEvE4typeE"(ptr noundef nonnull align 8 dereferenceable(16) %0, ptr noundef nonnull align 8 dereferenceable(8) %1, ptr noundef %2, ptr noundef %3) unnamed_addr #0 align 2 {
  %5 = alloca ptr, align 8
  %6 = alloca ptr, align 8
  %7 = alloca ptr, align 8
  %8 = alloca ptr, align 8
  store ptr %0, ptr %5, align 8
  store ptr %1, ptr %6, align 8
  store ptr %2, ptr %7, align 8
  store ptr %3, ptr %8, align 8
  %9 = load ptr, ptr %5, align 8
  %10 = getelementptr inbounds nuw %"class.llvm::function_ref", ptr %9, i32 0, i32 0
  store ptr @"_ZN4llvm12function_refIFvNS_9StringRefEEE11callback_fnIZNS_2cl30TokenizeWindowsCommandLineFullES1_RNS_11StringSaverERNS_15SmallVectorImplIPKcEEbE3$_0EEvlS1_", ptr %10, align 8
  %11 = getelementptr inbounds nuw %"class.llvm::function_ref", ptr %9, i32 0, i32 1
  %12 = load ptr, ptr %6, align 8
  %13 = ptrtoint ptr %12 to i64
  store i64 %13, ptr %11, align 8
  ret void
}

; Function Attrs: mustprogress nounwind uwtable
define dso_local void @_ZN4llvm2cl30TokenizeWindowsCommandLineFullENS_9StringRefERNS_11StringSaverERNS_15SmallVectorImplIPKcEEb(ptr %0, i64 %1, ptr noundef nonnull align 8 dereferenceable(8) %2, ptr noundef nonnull align 8 dereferenceable(16) %3, i1 noundef zeroext %4) #0 {
  %6 = alloca %"class.llvm::StringRef", align 8
  %7 = alloca ptr, align 8
  %8 = alloca ptr, align 8
  %9 = alloca i8, align 1
  %10 = alloca %class.anon.86, align 8
  %11 = alloca %class.anon.87, align 8
  %12 = alloca %"class.llvm::StringRef", align 8
  %13 = alloca %"class.llvm::function_ref", align 8
  %14 = alloca %"class.llvm::function_ref.83", align 8
  %15 = getelementptr inbounds nuw { ptr, i64 }, ptr %6, i32 0, i32 0
  store ptr %0, ptr %15, align 8
  %16 = getelementptr inbounds nuw { ptr, i64 }, ptr %6, i32 0, i32 1
  store i64 %1, ptr %16, align 8
  store ptr %2, ptr %7, align 8
  store ptr %3, ptr %8, align 8
  %17 = zext i1 %4 to i8
  store i8 %17, ptr %9, align 1
  %18 = getelementptr inbounds nuw %class.anon.86, ptr %10, i32 0, i32 0
  %19 = load ptr, ptr %8, align 8
  store ptr %19, ptr %18, align 8
  %20 = getelementptr inbounds nuw %class.anon.87, ptr %11, i32 0, i32 0
  store ptr %9, ptr %20, align 8
  %21 = getelementptr inbounds nuw %class.anon.87, ptr %11, i32 0, i32 1
  %22 = load ptr, ptr %8, align 8
  store ptr %22, ptr %21, align 8
  call void @llvm.memcpy.p0.p0.i64(ptr align 8 %12, ptr align 8 %6, i64 16, i1 false)
  %23 = load ptr, ptr %7, align 8
  call void @"_ZN4llvm12function_refIFvNS_9StringRefEEEC2IRZNS_2cl30TokenizeWindowsCommandLineFullES1_RNS_11StringSaverERNS_15SmallVectorImplIPKcEEbE3$_0EEOT_PNSt9enable_ifIXntsr3std7is_sameINS_12remove_cvrefISF_E4typeES3_EE5valueEvE4typeEPNSH_IXooL_ZNSt17integral_constantIbLb1EE5valueEEsr3std14is_convertibleIDTclclsr3stdE7declvalISF_EEclL_ZSt7declvalIS1_EDTcl9__declvalISF_ELi0EEEvEEEEvEE5valueEvE4typeE"(ptr noundef nonnull align 8 dereferenceable(16) %13, ptr noundef nonnull align 8 dereferenceable(8) %10, ptr noundef null, ptr noundef null)
  call void @"_ZN4llvm12function_refIFvvEEC2IRZNS_2cl30TokenizeWindowsCommandLineFullENS_9StringRefERNS_11StringSaverERNS_15SmallVectorImplIPKcEEbE3$_1EEOT_PNSt9enable_ifIXntsr3std7is_sameINS_12remove_cvrefISF_E4typeES2_EE5valueEvE4typeEPNSH_IXooL_ZNSt17integral_constantIbLb1EE5valueEEsr3std14is_convertibleIDTclclsr3stdE7declvalISF_EEEEvEE5valueEvE4typeE"(ptr noundef nonnull align 8 dereferenceable(16) %14, ptr noundef nonnull align 8 dereferenceable(16) %11, ptr noundef null, ptr noundef null)
  %24 = getelementptr inbounds nuw { ptr, i64 }, ptr %12, i32 0, i32 0
  %25 = load ptr, ptr %24, align 8
  %26 = getelementptr inbounds nuw { ptr, i64 }, ptr %12, i32 0, i32 1
  %27 = load i64, ptr %26, align 8
  %28 = getelementptr inbounds nuw { ptr, i64 }, ptr %13, i32 0, i32 0
  %29 = load ptr, ptr %28, align 8
  %30 = getelementptr inbounds nuw { ptr, i64 }, ptr %13, i32 0, i32 1
  %31 = load i64, ptr %30, align 8
  call void @_ZL30tokenizeWindowsCommandLineImplN4llvm9StringRefERNS_11StringSaverENS_12function_refIFvS0_EEEbNS3_IFvvEEEb(ptr %25, i64 %27, ptr noundef nonnull align 8 dereferenceable(8) %23, ptr %29, i64 %31, i1 noundef zeroext true, ptr noundef byval(%"class.llvm::function_ref.83") align 8 %14, i1 noundef zeroext true)
  ret void
}