; Function Attrs: mustprogress nounwind uwtable
define dso_local void @_ZN4llvm2cl30TokenizeWindowsCommandLineFullENS_9StringRefERNS_11StringSaverERNS_15SmallVectorImplIPKcEEb(ptr %0, i64 %1, ptr noundef nonnull align 8 dereferenceable(8) %2, ptr noundef nonnull align 8 dereferenceable(16) %3, i1 noundef zeroext %4) local_unnamed_addr #0 {
  %6 = alloca i8, align 1
  %7 = alloca %class.anon.86, align 8
  %8 = alloca %class.anon.87, align 8
  %9 = zext i1 %4 to i8
  store i8 %9, ptr %6, align 1
  store ptr %3, ptr %7, align 8
  store ptr %6, ptr %8, align 8
  %10 = getelementptr inbounds nuw i8, ptr %8, i64 8
  store ptr %3, ptr %10, align 8
  %11 = ptrtoint ptr %7 to i64
  %12 = ptrtoint ptr %8 to i64
  call fastcc void @_ZL30tokenizeWindowsCommandLineImplN4llvm9StringRefERNS_11StringSaverENS_12function_refIFvS0_EEEbNS3_IFvvEEEb(ptr %0, i64 %1, ptr noundef nonnull align 8 dereferenceable(8) %2, ptr nonnull @"_ZN4llvm12function_refIFvNS_9StringRefEEE11callback_fnIZNS_2cl30TokenizeWindowsCommandLineFullES1_RNS_11StringSaverERNS_15SmallVectorImplIPKcEEbE3$_0EEvlS1_", i64 %11, i1 noundef zeroext true, ptr nonnull @"_ZN4llvm12function_refIFvvEE11callback_fnIZNS_2cl30TokenizeWindowsCommandLineFullENS_9StringRefERNS_11StringSaverERNS_15SmallVectorImplIPKcEEbE3$_1EEvl", i64 %12, i1 noundef zeroext true)
  ret void
}